target datalayout = "e-m:e-p270:32:32-p271:32:32-p272:64:64-i64:64-i128:128-f80:128-n8:16:32:64-S128"
target triple = "x86_64-pc-linux-gnu"

%"struct.__cxxabiv1::(anonymous namespace)::LibcppMutex" = type { %union.pthread_mutex_t }
%union.pthread_mutex_t = type { %struct.__pthread_mutex_s }
%struct.__pthread_mutex_s = type { i32, i32, i32, i32, i32, i16, i16, %struct.__pthread_internal_list }
%struct.__pthread_internal_list = type { ptr, ptr }
%"struct.__cxxabiv1::(anonymous namespace)::InitByteGlobalMutex<__cxxabiv1::(anonymous namespace)::LibcppMutex, __cxxabiv1::(anonymous namespace)::LibcppCondVar, __cxxabiv1::(anonymous namespace)::GlobalStatic<__cxxabiv1::(anonymous namespace)::LibcppMutex>::instance, __cxxabiv1::(anonymous namespace)::GlobalStatic<__cxxabiv1::(anonymous namespace)::LibcppCondVar>::instance, &__cxxabiv1::(anonymous namespace)::PlatformThreadID>::LockGuard" = type { ptr }

@_ZN10__cxxabiv112_GLOBAL__N_112GlobalStaticINS0_11LibcppMutexEE8instanceE = internal global %"struct.__cxxabiv1::(anonymous namespace)::LibcppMutex" zeroinitializer, align 8
@.str.3 = private unnamed_addr constant [27 x i8] c"%s failed to release mutex\00", align 1

; Function Attrs: inlinehint mustprogress nounwind uwtable
define linkonce_odr hidden noundef i32 @_ZNSt3__121__libcpp_mutex_unlockB8ne210000EP15pthread_mutex_t(ptr noundef %0) #5 comdat {
  %2 = alloca ptr, align 8
  store ptr %0, ptr %2, align 8, !tbaa !49
  %3 = load ptr, ptr %2, align 8, !tbaa !49
  %4 = call i32 @pthread_mutex_unlock(ptr noundef %3) #10
  ret i32 %4
}

; Function Attrs: mustprogress uwtable
define internal noundef zeroext i1 @_ZN10__cxxabiv112_GLOBAL__N_111LibcppMutex6unlockEv(ptr noundef nonnull align 8 dereferenceable(40) %0) #2 align 2 {
  %2 = alloca ptr, align 8
  store ptr %0, ptr %2, align 8, !tbaa !47
  %3 = load ptr, ptr %2, align 8
  %4 = getelementptr inbounds nuw %"struct.__cxxabiv1::(anonymous namespace)::LibcppMutex", ptr %3, i32 0, i32 0
  %5 = call noundef i32 @_ZNSt3__121__libcpp_mutex_unlockB8ne210000EP15pthread_mutex_t(ptr noundef %4)
  %6 = icmp ne i32 %5, 0
  ret i1 %6
}

; Function Attrs: mustprogress nounwind uwtable
define internal void @_ZN10__cxxabiv112_GLOBAL__N_119InitByteGlobalMutexINS0_11LibcppMutexENS0_13LibcppCondVarEL_ZNS0_12GlobalStaticIS2_E8instanceEEL_ZNS4_IS3_E8instanceEEXadL_ZNS0_16PlatformThreadIDEvEEE9LockGuardD2Ev(ptr noundef nonnull align 8 dereferenceable(8) %0) unnamed_addr #3 align 2 personality ptr @__gxx_personality_v0 {
  %2 = alloca ptr, align 8
  store ptr %0, ptr %2, align 8, !tbaa !40
  %3 = load ptr, ptr %2, align 8
  %4 = invoke noundef zeroext i1 @_ZN10__cxxabiv112_GLOBAL__N_111LibcppMutex6unlockEv(ptr noundef nonnull align 8 dereferenceable(40) @_ZN10__cxxabiv112_GLOBAL__N_112GlobalStaticINS0_11LibcppMutexEE8instanceE)
          to label %5 unwind label %11

5:                                                ; preds = %1
  br i1 %4, label %6, label %10

6:                                                ; preds = %5
  %7 = getelementptr inbounds nuw %"struct.__cxxabiv1::(anonymous namespace)::InitByteGlobalMutex<__cxxabiv1::(anonymous namespace)::LibcppMutex, __cxxabiv1::(anonymous namespace)::LibcppCondVar, __cxxabiv1::(anonymous namespace)::GlobalStatic<__cxxabiv1::(anonymous namespace)::LibcppMutex>::instance, __cxxabiv1::(anonymous namespace)::GlobalStatic<__cxxabiv1::(anonymous namespace)::LibcppCondVar>::instance, &__cxxabiv1::(anonymous namespace)::PlatformThreadID>::LockGuard", ptr %3, i32 0, i32 0
  %8 = load ptr, ptr %7, align 8, !tbaa !42
  invoke void (ptr, ...) @__abort_message(ptr noundef @.str.3, ptr noundef %8) #11
          to label %9 unwind label %11

9:                                                ; preds = %6
  unreachable

10:                                               ; preds = %5
  ret void

11:                                               ; preds = %6, %1
  %12 = landingpad { ptr, i32 }
          catch ptr null
  %13 = extractvalue { ptr, i32 } %12, 0
  call void @__clang_call_terminate(ptr %13) #12
  unreachable
}