; Function Attrs: mustprogress nounwind uwtable
define internal fastcc void @_ZN10__cxxabiv112_GLOBAL__N_119InitByteGlobalMutexINS0_11LibcppMutexENS0_13LibcppCondVarEL_ZNS0_12GlobalStaticIS2_E8instanceEEL_ZNS4_IS3_E8instanceEEXadL_ZNS0_16PlatformThreadIDEvEEE9LockGuardD2Ev(ptr %.0.val) unnamed_addr #3 align 2 personality ptr @__gxx_personality_v0 {
  %1 = tail call noundef i32 @pthread_mutex_unlock(ptr noundef nonnull @_ZN10__cxxabiv112_GLOBAL__N_112GlobalStaticINS0_11LibcppMutexEE8instanceE) #7
  %.not = icmp eq i32 %1, 0
  br i1 %.not, label %4, label %2

2:                                                ; preds = %0
  invoke void (ptr, ...) @__abort_message(ptr noundef nonnull @.str.3, ptr noundef %.0.val) #8
          to label %3 unwind label %5

3:                                                ; preds = %2
  unreachable

4:                                                ; preds = %0
  ret void

5:                                                ; preds = %2
  %6 = landingpad { ptr, i32 }
          catch ptr null
  %7 = extractvalue { ptr, i32 } %6, 0
  tail call void @__clang_call_terminate(ptr %7) #9
  unreachable
}